target datalayout = "e-m:e-p270:32:32-p271:32:32-p272:64:64-i64:64-i128:128-f80:128-n8:16:32:64-S128"
target triple = "x86_64-pc-linux-gnu"

%struct.IDAMemRec = type { ptr, double, ptr, ptr, i32, double, double, ptr, i32, i32, ptr, ptr, i32, i32, i32, ptr, ptr, i32, i32, double, double, ptr, i32, i32, i32, i32, ptr, ptr, i32, ptr, ptr, ptr, i32, double, i32, i32, double, ptr, ptr, ptr, i32, ptr, ptr, i32, i32, i32, double, ptr, ptr, ptr, [6 x ptr], [6 x double], [6 x double], [6 x double], [6 x double], [6 x double], ptr, ptr, ptr, ptr, ptr, ptr, ptr, ptr, ptr, ptr, ptr, ptr, ptr, ptr, ptr, ptr, ptr, [6 x ptr], ptr, ptr, ptr, ptr, [6 x ptr], ptr, ptr, ptr, ptr, ptr, ptr, ptr, ptr, ptr, ptr, ptr, ptr, ptr, ptr, ptr, ptr, [6 x ptr], ptr, ptr, ptr, ptr, ptr, double, ptr, ptr, i32, i32, i32, i32, i32, i32, i32, i32, double, double, double, i32, double, i32, i32, i32, i32, i32, double, double, double, double, double, double, double, double, double, double, double, double, double, double, double, double, double, i32, i32, i32, i32, i64, double, double, double, double, double, double, double, double, double, i64, i64, i64, i64, i64, i64, i64, i64, i64, i64, i64, i64, i64, i64, i64, i64, i64, i64, i64, i64, i64, i64, i64, i64, i64, i64, double, i32, i32, i32, i32, i32, i32, i32, i32, i32, i32, i32, i32, i32, ptr, i32, ptr, i32, ptr, i32, ptr, ptr, ptr, ptr, ptr, ptr, i32, i32, ptr, ptr, ptr, ptr, ptr, ptr, ptr, double, i32, i32, ptr, i32, ptr, ptr, double, double, double, ptr, ptr, ptr, double, double, i32, i32, i64, ptr, i32, ptr, [5 x double], ptr, ptr, i32, ptr, i32 }

@.str = private unnamed_addr constant [111 x i8] c"generated/home/dtcxzyw/WorkSpace/Projects/compilers/llvm-opt-benchmark/bench/sundials/sundials/src/idas/idas.c\00", align 1
@.str.3 = private unnamed_addr constant [24 x i8] c"ida_mem = NULL illegal.\00", align 1
@.str.4 = private unnamed_addr constant [19 x i8] c"y0 = NULL illegal.\00", align 1
@.str.5 = private unnamed_addr constant [20 x i8] c"yp0 = NULL illegal.\00", align 1
@__func__.IDAReInit = private unnamed_addr constant [10 x i8] c"IDAReInit\00", align 1
@.str.9 = private unnamed_addr constant [34 x i8] c"Attempt to call before IDAMalloc.\00", align 1

; Function Attrs: nounwind uwtable
define i32 @IDAReInit(ptr noundef %0, double noundef %1, ptr noundef %2, ptr noundef %3) #0 {
  %5 = alloca i32, align 4
  %6 = alloca ptr, align 8
  %7 = alloca double, align 8
  %8 = alloca ptr, align 8
  %9 = alloca ptr, align 8
  %10 = alloca ptr, align 8
  %11 = alloca i32, align 4
  store ptr %0, ptr %6, align 8, !tbaa !126
  store double %1, ptr %7, align 8, !tbaa !123
  store ptr %2, ptr %8, align 8, !tbaa !124
  store ptr %3, ptr %9, align 8, !tbaa !124
  call void @llvm.lifetime.start.p0(i64 8, ptr %10) #10
  %12 = load ptr, ptr %6, align 8, !tbaa !126
  %13 = icmp eq ptr %12, null
  br i1 %13, label %14, label %15

14:                                               ; preds = %4
  call void (ptr, i32, i32, ptr, ptr, ptr, ...) @IDAProcessError(ptr noundef null, i32 noundef -20, i32 noundef 788, ptr noundef @__func__.IDAReInit, ptr noundef @.str, ptr noundef @.str.3)
  store i32 -20, ptr %5, align 4
  store i32 1, ptr %11, align 4
  br label %75

15:                                               ; preds = %4
  %16 = load ptr, ptr %6, align 8, !tbaa !126
  store ptr %16, ptr %10, align 8, !tbaa !8
  %17 = load ptr, ptr %10, align 8, !tbaa !8
  %18 = getelementptr inbounds nuw %struct.IDAMemRec, ptr %17, i32 0, i32 184
  %19 = load i32, ptr %18, align 8, !tbaa !90
  %20 = icmp eq i32 %19, 0
  br i1 %20, label %21, label %23

21:                                               ; preds = %15
  %22 = load ptr, ptr %10, align 8, !tbaa !8
  call void (ptr, i32, i32, ptr, ptr, ptr, ...) @IDAProcessError(ptr noundef %22, i32 noundef -23, i32 noundef 799, ptr noundef @__func__.IDAReInit, ptr noundef @.str, ptr noundef @.str.9)
  store i32 -23, ptr %5, align 4
  store i32 1, ptr %11, align 4
  br label %75

23:                                               ; preds = %15
  %24 = load ptr, ptr %8, align 8, !tbaa !124
  %25 = icmp eq ptr %24, null
  br i1 %25, label %26, label %28

26:                                               ; preds = %23
  %27 = load ptr, ptr %10, align 8, !tbaa !8
  call void (ptr, i32, i32, ptr, ptr, ptr, ...) @IDAProcessError(ptr noundef %27, i32 noundef -22, i32 noundef 809, ptr noundef @__func__.IDAReInit, ptr noundef @.str, ptr noundef @.str.4)
  store i32 -22, ptr %5, align 4
  store i32 1, ptr %11, align 4
  br label %75

28:                                               ; preds = %23
  %29 = load ptr, ptr %9, align 8, !tbaa !124
  %30 = icmp eq ptr %29, null
  br i1 %30, label %31, label %33

31:                                               ; preds = %28
  %32 = load ptr, ptr %10, align 8, !tbaa !8
  call void (ptr, i32, i32, ptr, ptr, ptr, ...) @IDAProcessError(ptr noundef %32, i32 noundef -22, i32 noundef 817, ptr noundef @__func__.IDAReInit, ptr noundef @.str, ptr noundef @.str.5)
  store i32 -22, ptr %5, align 4
  store i32 1, ptr %11, align 4
  br label %75

33:                                               ; preds = %28
  %34 = load double, ptr %7, align 8, !tbaa !123
  %35 = load ptr, ptr %10, align 8, !tbaa !8
  %36 = getelementptr inbounds nuw %struct.IDAMemRec, ptr %35, i32 0, i32 127
  store double %34, ptr %36, align 8, !tbaa !137
  %37 = load ptr, ptr %10, align 8, !tbaa !8
  %38 = getelementptr inbounds nuw %struct.IDAMemRec, ptr %37, i32 0, i32 215
  store i32 0, ptr %38, align 8, !tbaa !145
  %39 = load ptr, ptr %8, align 8, !tbaa !124
  %40 = load ptr, ptr %10, align 8, !tbaa !8
  %41 = getelementptr inbounds nuw %struct.IDAMemRec, ptr %40, i32 0, i32 50
  %42 = getelementptr inbounds [6 x ptr], ptr %41, i64 0, i64 0
  %43 = load ptr, ptr %42, align 8, !tbaa !124
  call void @N_VScale(double noundef 1.000000e+00, ptr noundef %39, ptr noundef %43)
  %44 = load ptr, ptr %9, align 8, !tbaa !124
  %45 = load ptr, ptr %10, align 8, !tbaa !8
  %46 = getelementptr inbounds nuw %struct.IDAMemRec, ptr %45, i32 0, i32 50
  %47 = getelementptr inbounds [6 x ptr], ptr %46, i64 0, i64 1
  %48 = load ptr, ptr %47, align 8, !tbaa !124
  call void @N_VScale(double noundef 1.000000e+00, ptr noundef %44, ptr noundef %48)
  %49 = load ptr, ptr %10, align 8, !tbaa !8
  %50 = getelementptr inbounds nuw %struct.IDAMemRec, ptr %49, i32 0, i32 153
  store i64 0, ptr %50, align 8, !tbaa !146
  %51 = load ptr, ptr %10, align 8, !tbaa !8
  %52 = getelementptr inbounds nuw %struct.IDAMemRec, ptr %51, i32 0, i32 154
  store i64 0, ptr %52, align 8, !tbaa !147
  %53 = load ptr, ptr %10, align 8, !tbaa !8
  %54 = getelementptr inbounds nuw %struct.IDAMemRec, ptr %53, i32 0, i32 160
  store i64 0, ptr %54, align 8, !tbaa !148
  %55 = load ptr, ptr %10, align 8, !tbaa !8
  %56 = getelementptr inbounds nuw %struct.IDAMemRec, ptr %55, i32 0, i32 163
  store i64 0, ptr %56, align 8, !tbaa !149
  %57 = load ptr, ptr %10, align 8, !tbaa !8
  %58 = getelementptr inbounds nuw %struct.IDAMemRec, ptr %57, i32 0, i32 167
  store i64 0, ptr %58, align 8, !tbaa !150
  %59 = load ptr, ptr %10, align 8, !tbaa !8
  %60 = getelementptr inbounds nuw %struct.IDAMemRec, ptr %59, i32 0, i32 169
  store i64 0, ptr %60, align 8, !tbaa !151
  %61 = load ptr, ptr %10, align 8, !tbaa !8
  %62 = getelementptr inbounds nuw %struct.IDAMemRec, ptr %61, i32 0, i32 171
  store i64 0, ptr %62, align 8, !tbaa !152
  %63 = load ptr, ptr %10, align 8, !tbaa !8
  %64 = getelementptr inbounds nuw %struct.IDAMemRec, ptr %63, i32 0, i32 118
  store i32 0, ptr %64, align 4, !tbaa !153
  %65 = load ptr, ptr %10, align 8, !tbaa !8
  %66 = getelementptr inbounds nuw %struct.IDAMemRec, ptr %65, i32 0, i32 125
  store double 0.000000e+00, ptr %66, align 8, !tbaa !154
  %67 = load ptr, ptr %10, align 8, !tbaa !8
  %68 = getelementptr inbounds nuw %struct.IDAMemRec, ptr %67, i32 0, i32 179
  store double 1.000000e+00, ptr %68, align 8, !tbaa !155
  %69 = load ptr, ptr %10, align 8, !tbaa !8
  %70 = getelementptr inbounds nuw %struct.IDAMemRec, ptr %69, i32 0, i32 231
  store i64 0, ptr %70, align 8, !tbaa !156
  %71 = load ptr, ptr %10, align 8, !tbaa !8
  %72 = getelementptr inbounds nuw %struct.IDAMemRec, ptr %71, i32 0, i32 230
  store i32 0, ptr %72, align 4, !tbaa !157
  %73 = load ptr, ptr %10, align 8, !tbaa !8
  %74 = getelementptr inbounds nuw %struct.IDAMemRec, ptr %73, i32 0, i32 180
  store i32 0, ptr %74, align 8, !tbaa !168
  store i32 0, ptr %5, align 4
  store i32 1, ptr %11, align 4
  br label %75

75:                                               ; preds = %33, %31, %26, %21, %14
  call void @llvm.lifetime.end.p0(i64 8, ptr %10) #10
  %76 = load i32, ptr %5, align 4
  ret i32 %76
}