; Function Attrs: nounwind uwtable
define range(i32 -23, 1) i32 @IDAReInit(ptr noundef captures(address_is_null) %0, double noundef %1, ptr noundef %2, ptr noundef %3) local_unnamed_addr #0 {
  %5 = icmp eq ptr %0, null
  br i1 %5, label %6, label %7

6:                                                ; preds = %4
  tail call void (ptr, i32, i32, ptr, ptr, ptr, ...) @IDAProcessError(ptr noundef null, i32 noundef -20, i32 noundef 788, ptr noundef nonnull @__func__.IDAReInit, ptr noundef nonnull @.str, ptr noundef nonnull @.str.3)
  br label %37

7:                                                ; preds = %4
  %8 = getelementptr inbounds nuw i8, ptr %0, i64 1696
  %9 = load i32, ptr %8, align 8, !tbaa !140
  %10 = icmp eq i32 %9, 0
  br i1 %10, label %11, label %12

11:                                               ; preds = %7
  tail call void (ptr, i32, i32, ptr, ptr, ptr, ...) @IDAProcessError(ptr noundef nonnull %0, i32 noundef -23, i32 noundef 799, ptr noundef nonnull @__func__.IDAReInit, ptr noundef nonnull @.str, ptr noundef nonnull @.str.9)
  br label %37

12:                                               ; preds = %7
  %13 = icmp eq ptr %2, null
  br i1 %13, label %14, label %15

14:                                               ; preds = %12
  tail call void (ptr, i32, i32, ptr, ptr, ptr, ...) @IDAProcessError(ptr noundef nonnull %0, i32 noundef -22, i32 noundef 809, ptr noundef nonnull @__func__.IDAReInit, ptr noundef nonnull @.str, ptr noundef nonnull @.str.4)
  br label %37

15:                                               ; preds = %12
  %16 = icmp eq ptr %3, null
  br i1 %16, label %17, label %18

17:                                               ; preds = %15
  tail call void (ptr, i32, i32, ptr, ptr, ptr, ...) @IDAProcessError(ptr noundef nonnull %0, i32 noundef -22, i32 noundef 817, ptr noundef nonnull @__func__.IDAReInit, ptr noundef nonnull @.str, ptr noundef nonnull @.str.5)
  br label %37

18:                                               ; preds = %15
  %19 = getelementptr inbounds nuw i8, ptr %0, i64 1272
  store double %1, ptr %19, align 8, !tbaa !125
  %20 = getelementptr inbounds nuw i8, ptr %0, i64 1904
  store i32 0, ptr %20, align 8, !tbaa !126
  %21 = getelementptr inbounds nuw i8, ptr %0, i64 344
  %22 = load ptr, ptr %21, align 8, !tbaa !83
  tail call void @N_VScale(double noundef 1.000000e+00, ptr noundef nonnull %2, ptr noundef %22) #14
  %23 = getelementptr inbounds nuw i8, ptr %0, i64 352
  %24 = load ptr, ptr %23, align 8, !tbaa !83
  tail call void @N_VScale(double noundef 1.000000e+00, ptr noundef nonnull %3, ptr noundef %24) #14
  %25 = getelementptr inbounds nuw i8, ptr %0, i64 1464
  %26 = getelementptr inbounds nuw i8, ptr %0, i64 1520
  store i64 0, ptr %26, align 8, !tbaa !127
  %27 = getelementptr inbounds nuw i8, ptr %0, i64 1544
  store i64 0, ptr %27, align 8, !tbaa !128
  %28 = getelementptr inbounds nuw i8, ptr %0, i64 1576
  store i64 0, ptr %28, align 8, !tbaa !129
  %29 = getelementptr inbounds nuw i8, ptr %0, i64 1592
  store i64 0, ptr %29, align 8, !tbaa !130
  %30 = getelementptr inbounds nuw i8, ptr %0, i64 1608
  store i64 0, ptr %30, align 8, !tbaa !131
  %31 = getelementptr inbounds nuw i8, ptr %0, i64 1212
  store i32 0, ptr %31, align 4, !tbaa !132
  %32 = getelementptr inbounds nuw i8, ptr %0, i64 1256
  store double 0.000000e+00, ptr %32, align 8, !tbaa !133
  %33 = getelementptr inbounds nuw i8, ptr %0, i64 1672
  tail call void @llvm.memset.p0.i64(ptr noundef nonnull align 8 dereferenceable(16) %25, i8 0, i64 16, i1 false)
  store double 1.000000e+00, ptr %33, align 8, !tbaa !134
  %34 = getelementptr inbounds nuw i8, ptr %0, i64 2016
  store i64 0, ptr %34, align 8, !tbaa !147
  %35 = getelementptr inbounds nuw i8, ptr %0, i64 2012
  store i32 0, ptr %35, align 4, !tbaa !148
  %36 = getelementptr inbounds nuw i8, ptr %0, i64 1680
  store i32 0, ptr %36, align 8, !tbaa !139
  br label %37

37:                                               ; preds = %18, %17, %14, %11, %6
  %.0 = phi i32 [ -20, %6 ], [ -23, %11 ], [ -22, %14 ], [ -22, %17 ], [ 0, %18 ]
  ret i32 %.0
}